(dp0
S'brock'
p1
(dp2
S'digit4attempted'
p3
I0
sS'logins'
p4
I1
sS'digit7attempted'
p5
I0
sS'digit2attempted'
p6
I0
sS'digit6attempted'
p7
I0
sS'digit5attempted'
p8
I1
sS'digit0attempted'
p9
I0
sS'digit8attempted'
p10
I0
sS'digit9attempted'
p11
I0
sS'digit3attempted'
p12
I0
sS'digit1attempted'
p13
I0
ssS'hggkl'
p14
(dp15
S'digit4attempted'
p16
I0
sS'logins'
p17
I1
sS'digit7attempted'
p18
I0
sS'digit2attempted'
p19
I0
sS'digit6attempted'
p20
I0
sS'digit5attempted'
p21
I5
sS'digit0attempted'
p22
I0
sS'digit8attempted'
p23
I0
sS'digit9attempted'
p24
I0
sS'digit3attempted'
p25
I0
sS'digit1attempted'
p26
I0
ssS'tester'
p27
(dp28
S'digit4attempted'
p29
I0
sS'logins'
p30
I1
sS'digit7attempted'
p31
I0
sS'digit2attempted'
p32
I5
sS'digit6attempted'
p33
I0
sS'digit5attempted'
p34
I0
sS'digit0attempted'
p35
I1
sS'digit8attempted'
p36
I0
sS'digit9attempted'
p37
I0
sS'digit3attempted'
p38
I1
sS'digit1attempted'
p39
I0
ssS'boland'
p40
(dp41
S'digit4attempted'
p42
I0
sS'logins'
p43
I2
sS'digit7attempted'
p44
I0
sS'digit2attempted'
p45
I0
sS'digit6attempted'
p46
I0
sS'digit5attempted'
p47
I4
sS'digit0attempted'
p48
I0
sS'digit8attempted'
p49
I0
sS'digit9attempted'
p50
I0
sS'digit3attempted'
p51
I0
sS'digit1attempted'
p52
I0
ssS'testt'
p53
(dp54
S'digit4attempted'
p55
I0
sS'logins'
p56
I1
sS'digit7attempted'
p57
I0
sS'digit2attempted'
p58
I6
sS'digit6attempted'
p59
I0
sS'digit5attempted'
p60
I0
sS'digit0attempted'
p61
I0
sS'digit8attempted'
p62
I2
sS'digit9attempted'
p63
I0
sS'digit3attempted'
p64
I0
sS'digit1attempted'
p65
I0
ssS'erix'
p66
(dp67
S'digit4attempted'
p68
I0
sS'logins'
p69
I6
sS'digit7attempted'
p70
I0
sS'digit2attempted'
p71
I1
sS'digit6attempted'
p72
I0
sS'digit5attempted'
p73
I10
sS'digit0attempted'
p74
I3
sS'digit8attempted'
p75
I4
sS'digit9attempted'
p76
I0
sS'digit3attempted'
p77
I7
sS'digit1attempted'
p78
I1
ssS'f'
p79
(dp80
S'digit4attempted'
p81
I0
sS'logins'
p82
I1
sS'digit7attempted'
p83
I0
sS'digit2attempted'
p84
I0
sS'digit6attempted'
p85
I0
sS'digit5attempted'
p86
I0
sS'digit0attempted'
p87
I0
sS'digit8attempted'
p88
I0
sS'digit9attempted'
p89
I0
sS'digit3attempted'
p90
I0
sS'digit1attempted'
p91
I0
ssS'eric'
p92
(dp93
S'digit4attempted'
p94
I0
sS'logins'
p95
I22
sS'digit7attempted'
p96
I0
sS'digit2attempted'
p97
I9
sS'digit6attempted'
p98
I0
sS'digit5attempted'
p99
I9
sS'digit0attempted'
p100
I8
sS'digit8attempted'
p101
I4
sS'digit9attempted'
p102
I0
sS'digit3attempted'
p103
I4
sS'digit1attempted'
p104
I15
ssS'bolsn'
p105
(dp106
S'digit4attempted'
p107
I0
sS'logins'
p108
I1
sS'digit7attempted'
p109
I0
sS'digit2attempted'
p110
I0
sS'digit6attempted'
p111
I0
sS'digit5attempted'
p112
I4
sS'digit0attempted'
p113
I0
sS'digit8attempted'
p114
I0
sS'digit9attempted'
p115
I0
sS'digit3attempted'
p116
I0
sS'digit1attempted'
p117
I0
ssS'testing'
p118
(dp119
S'digit4attempted'
p120
I0
sS'logins'
p121
I1
sS'digit7attempted'
p122
I0
sS'digit2attempted'
p123
I0
sS'digit6attempted'
p124
I0
sS'digit5attempted'
p125
I0
sS'digit0attempted'
p126
I0
sS'digit8attempted'
p127
I0
sS'digit9attempted'
p128
I0
sS'digit3attempted'
p129
I0
sS'digit1attempted'
p130
I0
ssS'Eric'
p131
(dp132
S'digit4attempted'
p133
I0
sS'logins'
p134
I8
sS'digit7attempted'
p135
I0
sS'digit2attempted'
p136
I4
sS'digit6attempted'
p137
I0
sS'digit5attempted'
p138
I4
sS'digit0attempted'
p139
I5
sS'digit8attempted'
p140
I2
sS'digit9attempted'
p141
I0
sS'digit3attempted'
p142
I10
sS'digit1attempted'
p143
I9
ssS'Eri'
p144
(dp145
S'digit4attempted'
p146
I0
sS'logins'
p147
I1
sS'digit7attempted'
p148
I0
sS'digit2attempted'
p149
I1
sS'digit6attempted'
p150
I0
sS'digit5attempted'
p151
I0
sS'digit0attempted'
p152
I0
sS'digit8attempted'
p153
I0
sS'digit9attempted'
p154
I0
sS'digit3attempted'
p155
I0
sS'digit1attempted'
p156
I0
ssS'Bruh'
p157
(dp158
S'digit4attempted'
p159
I0
sS'logins'
p160
I1
sS'digit7attempted'
p161
I0
sS'digit2attempted'
p162
I0
sS'digit6attempted'
p163
I0
sS'digit5attempted'
p164
I3
sS'digit0attempted'
p165
I0
sS'digit8attempted'
p166
I0
sS'digit9attempted'
p167
I0
sS'digit3attempted'
p168
I0
sS'digit1attempted'
p169
I0
ssS'bruh'
p170
(dp171
S'digit4attempted'
p172
I0
sS'logins'
p173
I2
sS'digit7attempted'
p174
I0
sS'digit2attempted'
p175
I0
sS'digit6attempted'
p176
I0
sS'digit5attempted'
p177
I11
sS'digit0attempted'
p178
I0
sS'digit8attempted'
p179
I0
sS'digit9attempted'
p180
I0
sS'digit3attempted'
p181
I0
sS'digit1attempted'
p182
I0
ssS'test'
p183
(dp184
S'digit4attempted'
p185
I0
sS'logins'
p186
I1
sS'digit7attempted'
p187
I0
sS'digit2attempted'
p188
I0
sS'digit6attempted'
p189
I0
sS'digit5attempted'
p190
I1
sS'digit0attempted'
p191
I0
sS'digit8attempted'
p192
I5
sS'digit9attempted'
p193
I0
sS'digit3attempted'
p194
I0
sS'digit1attempted'
p195
I0
ssS'eri'
p196
(dp197
S'digit4attempted'
p198
I0
sS'logins'
p199
I1
sS'digit7attempted'
p200
I0
sS'digit2attempted'
p201
I1
sS'digit6attempted'
p202
I0
sS'digit5attempted'
p203
I1
sS'digit0attempted'
p204
I0
sS'digit8attempted'
p205
I0
sS'digit9attempted'
p206
I0
sS'digit3attempted'
p207
I0
sS'digit1attempted'
p208
I2
ssS'eri '
p209
(dp210
S'digit4attempted'
p211
I0
sS'logins'
p212
I1
sS'digit7attempted'
p213
I0
sS'digit2attempted'
p214
I0
sS'digit6attempted'
p215
I0
sS'digit5attempted'
p216
I0
sS'digit0attempted'
p217
I0
sS'digit8attempted'
p218
I0
sS'digit9attempted'
p219
I0
sS'digit3attempted'
p220
I0
sS'digit1attempted'
p221
I0
ss.