(dp0
S'Eric'
p1
(dp2
S'logins'
p3
I4
ssS'rob'
p4
(dp5
S'logins'
p6
I1
ssS'bib'
p7
(dp8
S'logins'
p9
I1
ssS'eric'
p10
(dp11
S'logins'
p12
I2
ssS'Bob'
p13
(dp14
S'logins'
p15
I2
ssS'bob'
p16
(dp17
S'logins'
p18
I2
ssS'brob'
p19
(dp20
S'logins'
p21
I3
ss.