(dp0
S'b'
p1
(dp2
S'digit4attempted'
p3
I0
sS'lastSessionCorrect'
p4
I0
sS'logins'
p5
I1
sS'digit7attempted'
p6
I0
sS'digit2attempted'
p7
I0
sS'digit6attempted'
p8
I0
sS'digit5attempted'
p9
I0
sS'digit0attempted'
p10
I0
sS'digit8attempted'
p11
I0
sS'digit9attempted'
p12
I0
sS'digit3attempted'
p13
I0
sS'totalCorrect'
p14
F0.0
sS'digit1attempted'
p15
I0
sS'totalAttempted'
p16
F0.0
sS'lastSessionTotal'
p17
I0
ssS'e'
p18
(dp19
S'digit4attempted'
p20
I0
sS'logins'
p21
I2
sS'digit7attempted'
p22
I0
sS'digit2attempted'
p23
I0
sS'totalAttempted'
p24
F0.0
sS'digit6attempted'
p25
I0
sS'digit5attempted'
p26
I0
sS'digit0attempted'
p27
I0
sS'digit8attempted'
p28
I0
sS'digit9attempted'
p29
I0
sS'digit3attempted'
p30
I0
sS'totalCorrect'
p31
F0.0
sS'digit1attempted'
p32
I0
sS'lastSessionCorrect'
p33
I0
sS'lastSessionTotal'
p34
I0
ssS'd'
p35
(dp36
S'digit4attempted'
p37
I0
sS'lastSessionCorrect'
p38
I0
sS'logins'
p39
I1
sS'digit7attempted'
p40
I0
sS'digit2attempted'
p41
I0
sS'digit6attempted'
p42
I0
sS'digit5attempted'
p43
I0
sS'digit0attempted'
p44
I0
sS'digit8attempted'
p45
I0
sS'digit9attempted'
p46
I0
sS'digit3attempted'
p47
I0
sS'totalCorrect'
p48
F0.0
sS'digit1attempted'
p49
I0
sS'totalAttempted'
p50
F0.0
sS'lastSessionTotal'
p51
I0
ssS'f'
p52
(dp53
S'digit4attempted'
p54
I0
sS'lastSessionCorrect'
p55
I0
sS'logins'
p56
I24
sS'digit7attempted'
p57
I0
sS'digit2attempted'
p58
I0
sS'digit6attempted'
p59
I0
sS'digit5attempted'
p60
I0
sS'digit0attempted'
p61
I0
sS'digit8attempted'
p62
I0
sS'digit9attempted'
p63
I0
sS'digit3attempted'
p64
I0
sS'totalCorrect'
p65
F0.0
sS'digit1attempted'
p66
I0
sS'totalAttempted'
p67
F0.0
sS'lastSessionTotal'
p68
I0
ssS'eric'
p69
(dp70
S'digit4attempted'
p71
I0
sS'logins'
p72
I12
sS'digit7attempted'
p73
I2
sS'digit2attempted'
p74
I1
sS'totalAttempted'
p75
F9.0
sS'digit6attempted'
p76
I0
sS'digit5attempted'
p77
I1
sS'digit0attempted'
p78
I1
sS'digit8attempted'
p79
I1
sS'digit9attempted'
p80
I1
sS'digit3attempted'
p81
I1
sS'totalCorrect'
p82
F6.0
sS'digit1attempted'
p83
I1
sS'lastSessionCorrect'
p84
F2.0
sS'lastSessionTotal'
p85
F2.0
ssS'h'
p86
(dp87
S'digit4attempted'
p88
I0
sS'lastSessionCorrect'
p89
I0
sS'logins'
p90
I4
sS'digit7attempted'
p91
I0
sS'digit2attempted'
p92
I0
sS'digit6attempted'
p93
I0
sS'digit5attempted'
p94
I0
sS'digit0attempted'
p95
I0
sS'digit8attempted'
p96
I0
sS'digit9attempted'
p97
I0
sS'digit3attempted'
p98
I0
sS'totalCorrect'
p99
F0.0
sS'digit1attempted'
p100
I0
sS'totalAttempted'
p101
F0.0
sS'lastSessionTotal'
p102
I0
ssS'k'
p103
(dp104
S'digit4attempted'
p105
I0
sS'logins'
p106
I3
sS'digit7attempted'
p107
I0
sS'digit2attempted'
p108
I0
sS'totalAttempted'
p109
F0.0
sS'digit6attempted'
p110
I0
sS'digit5attempted'
p111
I0
sS'digit0attempted'
p112
I0
sS'digit8attempted'
p113
I0
sS'digit9attempted'
p114
I0
sS'digit3attempted'
p115
I0
sS'totalCorrect'
p116
F0.0
sS'digit1attempted'
p117
I0
sS'lastSessionCorrect'
p118
I0
sS'lastSessionTotal'
p119
I0
ssS'user1'
p120
(dp121
S'digit4attempted'
p122
I0
sS'lastSessionCorrect'
p123
F1.0
sS'logins'
p124
I1
sS'digit7attempted'
p125
I0
sS'digit2attempted'
p126
I0
sS'digit6attempted'
p127
I0
sS'digit5attempted'
p128
I1
sS'digit0attempted'
p129
I0
sS'digit8attempted'
p130
I0
sS'digit9attempted'
p131
I2
sS'digit3attempted'
p132
I0
sS'totalCorrect'
p133
F2.0
sS'digit1attempted'
p134
I0
sS'totalAttempted'
p135
F3.0
sS'lastSessionTotal'
p136
F2.0
ssS','
p137
(dp138
S'digit4attempted'
p139
I0
sS'lastSessionCorrect'
p140
I0
sS'logins'
p141
I1
sS'digit7attempted'
p142
I0
sS'digit2attempted'
p143
I0
sS'digit6attempted'
p144
I0
sS'digit5attempted'
p145
I0
sS'digit0attempted'
p146
I0
sS'digit8attempted'
p147
I0
sS'digit9attempted'
p148
I0
sS'digit3attempted'
p149
I0
sS'totalCorrect'
p150
F0.0
sS'digit1attempted'
p151
I0
sS'totalAttempted'
p152
F0.0
sS'lastSessionTotal'
p153
I0
ssS'ef'
p154
(dp155
S'digit4attempted'
p156
I0
sS'logins'
p157
I1
sS'digit7attempted'
p158
I0
sS'digit2attempted'
p159
I0
sS'totalAttempted'
p160
F0.0
sS'digit6attempted'
p161
I0
sS'digit5attempted'
p162
I0
sS'digit0attempted'
p163
I0
sS'digit8attempted'
p164
I0
sS'digit9attempted'
p165
I0
sS'digit3attempted'
p166
I0
sS'totalCorrect'
p167
F0.0
sS'digit1attempted'
p168
I0
sS'lastSessionCorrect'
p169
I0
sS'lastSessionTotal'
p170
I0
ssS'l'
p171
(dp172
S'digit4attempted'
p173
I0
sS'lastSessionCorrect'
p174
I0
sS'logins'
p175
I1
sS'digit7attempted'
p176
I0
sS'digit2attempted'
p177
I0
sS'digit6attempted'
p178
I0
sS'digit5attempted'
p179
I0
sS'digit0attempted'
p180
I0
sS'digit8attempted'
p181
I0
sS'digit9attempted'
p182
I0
sS'digit3attempted'
p183
I0
sS'totalCorrect'
p184
F0.0
sS'digit1attempted'
p185
I0
sS'totalAttempted'
p186
F0.0
sS'lastSessionTotal'
p187
I0
ssS'hmm'
p188
(dp189
S'digit4attempted'
p190
I0
sS'lastSessionCorrect'
p191
I0
sS'logins'
p192
I1
sS'digit7attempted'
p193
I0
sS'digit2attempted'
p194
I0
sS'digit6attempted'
p195
I0
sS'digit5attempted'
p196
I0
sS'digit0attempted'
p197
I0
sS'digit8attempted'
p198
I0
sS'digit9attempted'
p199
I0
sS'digit3attempted'
p200
I0
sS'totalCorrect'
p201
F0.0
sS'digit1attempted'
p202
I0
sS'totalAttempted'
p203
F0.0
sS'lastSessionTotal'
p204
I0
ssS'fa'
p205
(dp206
S'digit4attempted'
p207
I0
sS'logins'
p208
I1
sS'digit7attempted'
p209
I0
sS'digit2attempted'
p210
I0
sS'totalAttempted'
p211
F0.0
sS'digit6attempted'
p212
I0
sS'digit5attempted'
p213
I0
sS'digit0attempted'
p214
I0
sS'digit8attempted'
p215
I0
sS'digit9attempted'
p216
I0
sS'digit3attempted'
p217
I0
sS'totalCorrect'
p218
F0.0
sS'digit1attempted'
p219
I0
sS'lastSessionCorrect'
p220
I0
sS'lastSessionTotal'
p221
I0
ssS'add'
p222
(dp223
S'digit4attempted'
p224
I0
sS'logins'
p225
I1
sS'digit7attempted'
p226
I0
sS'digit2attempted'
p227
I0
sS'totalAttempted'
p228
F0.0
sS'digit6attempted'
p229
I0
sS'digit5attempted'
p230
I0
sS'digit0attempted'
p231
I0
sS'digit8attempted'
p232
I0
sS'digit9attempted'
p233
I0
sS'digit3attempted'
p234
I0
sS'totalCorrect'
p235
F0.0
sS'digit1attempted'
p236
I0
sS'lastSessionCorrect'
p237
I0
sS'lastSessionTotal'
p238
I0
ssS'br'
p239
(dp240
S'digit4attempted'
p241
I0
sS'logins'
p242
I5
sS'digit7attempted'
p243
I0
sS'digit2attempted'
p244
I0
sS'totalAttempted'
p245
F0.0
sS'digit6attempted'
p246
I0
sS'digit5attempted'
p247
I0
sS'digit0attempted'
p248
I0
sS'digit8attempted'
p249
I0
sS'digit9attempted'
p250
I0
sS'digit3attempted'
p251
I0
sS'totalCorrect'
p252
F0.0
sS'digit1attempted'
p253
I0
sS'lastSessionCorrect'
p254
I0
sS'lastSessionTotal'
p255
I0
ssS'user2'
p256
(dp257
S'digit4attempted'
p258
I0
sS'logins'
p259
I1
sS'digit7attempted'
p260
I0
sS'digit2attempted'
p261
I0
sS'totalAttempted'
p262
F1.0
sS'digit6attempted'
p263
I0
sS'digit5attempted'
p264
I0
sS'digit0attempted'
p265
I0
sS'digit8attempted'
p266
I1
sS'digit9attempted'
p267
I0
sS'digit3attempted'
p268
I0
sS'totalCorrect'
p269
F1.0
sS'digit1attempted'
p270
I0
sS'lastSessionCorrect'
p271
F0.0
sS'lastSessionTotal'
p272
F0.0
ssS'j'
p273
(dp274
S'digit4attempted'
p275
I0
sS'lastSessionCorrect'
p276
I0
sS'logins'
p277
I1
sS'digit7attempted'
p278
I0
sS'digit2attempted'
p279
I0
sS'digit6attempted'
p280
I0
sS'digit5attempted'
p281
I0
sS'digit0attempted'
p282
I0
sS'digit8attempted'
p283
I0
sS'digit9attempted'
p284
I0
sS'digit3attempted'
p285
I0
sS'totalCorrect'
p286
F0.0
sS'digit1attempted'
p287
I0
sS'totalAttempted'
p288
F0.0
sS'lastSessionTotal'
p289
I0
ssS'newuser'
p290
(dp291
S'digit4attempted'
p292
I0
sS'logins'
p293
I1
sS'digit7attempted'
p294
I0
sS'digit2attempted'
p295
I0
sS'totalAttempted'
p296
F1.0
sS'digit6attempted'
p297
I0
sS'digit5attempted'
p298
I0
sS'digit0attempted'
p299
I0
sS'digit8attempted'
p300
I1
sS'digit9attempted'
p301
I0
sS'digit3attempted'
p302
I0
sS'totalCorrect'
p303
F1.0
sS'digit1attempted'
p304
I0
sS'lastSessionCorrect'
p305
F0.0
sS'lastSessionTotal'
p306
F0.0
ssS'eri'
p307
(dp308
S'digit4attempted'
p309
I1
sS'lastSessionCorrect'
p310
F0.0
sS'logins'
p311
I4
sS'digit7attempted'
p312
I2
sS'digit2attempted'
p313
I0
sS'digit6attempted'
p314
I2
sS'digit5attempted'
p315
I0
sS'digit0attempted'
p316
I0
sS'digit8attempted'
p317
I0
sS'digit9attempted'
p318
I0
sS'digit3attempted'
p319
I0
sS'totalCorrect'
p320
F2.0
sS'digit1attempted'
p321
I0
sS'totalAttempted'
p322
F5.0
sS'lastSessionTotal'
p323
F0.0
ssS'er'
p324
(dp325
S'digit4attempted'
p326
I0
sS'logins'
p327
I7
sS'digit7attempted'
p328
I0
sS'digit2attempted'
p329
I0
sS'totalAttempted'
p330
F0.0
sS'digit6attempted'
p331
I0
sS'digit5attempted'
p332
I0
sS'digit0attempted'
p333
I0
sS'digit8attempted'
p334
I0
sS'digit9attempted'
p335
I0
sS'digit3attempted'
p336
I0
sS'totalCorrect'
p337
F0.0
sS'digit1attempted'
p338
I0
sS'lastSessionCorrect'
p339
I0
sS'lastSessionTotal'
p340
I0
ss.