(dp0
S'newuser'
p1
(dp2
S'digit4attempted'
p3
I0
sS'lastSessionCorrect'
p4
F0.0
sS'logins'
p5
I1
sS'digit7attempted'
p6
I0
sS'digit2attempted'
p7
I0
sS'digit6attempted'
p8
I0
sS'digit5attempted'
p9
I0
sS'digit0attempted'
p10
I0
sS'digit8attempted'
p11
I1
sS'digit9attempted'
p12
I0
sS'digit3attempted'
p13
I0
sS'totalCorrect'
p14
F1.0
sS'digit1attempted'
p15
I0
sS'totalAttempted'
p16
F1.0
sS'lastSessionTotal'
p17
F0.0
ssS'user2'
p18
(dp19
S'digit4attempted'
p20
I0
sS'lastSessionCorrect'
p21
F0.0
sS'logins'
p22
I1
sS'digit7attempted'
p23
I0
sS'digit2attempted'
p24
I0
sS'digit6attempted'
p25
I0
sS'digit5attempted'
p26
I0
sS'digit0attempted'
p27
I0
sS'digit8attempted'
p28
I1
sS'digit9attempted'
p29
I0
sS'digit3attempted'
p30
I0
sS'totalCorrect'
p31
F1.0
sS'digit1attempted'
p32
I0
sS'totalAttempted'
p33
F1.0
sS'lastSessionTotal'
p34
F0.0
ssS'sam'
p35
(dp36
S'digit4attempted'
p37
I0
sS'logins'
p38
I3
sS'digit7attempted'
p39
I0
sS'digit2attempted'
p40
I0
sS'totalAttempted'
p41
F0.0
sS'digit6attempted'
p42
I0
sS'digit5attempted'
p43
I0
sS'digit0attempted'
p44
I0
sS'digit8attempted'
p45
I0
sS'digit9attempted'
p46
I0
sS'digit3attempted'
p47
I0
sS'totalCorrect'
p48
F0.0
sS'digit1attempted'
p49
I0
sS'lastSessionCorrect'
p50
I0
sS'lastSessionTotal'
p51
I0
ssS'user1'
p52
(dp53
S'digit4attempted'
p54
I0
sS'logins'
p55
I1
sS'digit7attempted'
p56
I0
sS'digit2attempted'
p57
I0
sS'totalAttempted'
p58
F3.0
sS'digit6attempted'
p59
I0
sS'digit5attempted'
p60
I1
sS'digit0attempted'
p61
I0
sS'digit8attempted'
p62
I0
sS'digit9attempted'
p63
I2
sS'digit3attempted'
p64
I0
sS'totalCorrect'
p65
F2.0
sS'digit1attempted'
p66
I0
sS'lastSessionCorrect'
p67
F1.0
sS'lastSessionTotal'
p68
F2.0
ssS'ef'
p69
(dp70
S'digit4attempted'
p71
I0
sS'lastSessionCorrect'
p72
I0
sS'logins'
p73
I1
sS'digit7attempted'
p74
I0
sS'digit2attempted'
p75
I0
sS'digit6attempted'
p76
I0
sS'digit5attempted'
p77
I0
sS'digit0attempted'
p78
I0
sS'digit8attempted'
p79
I0
sS'digit9attempted'
p80
I0
sS'digit3attempted'
p81
I0
sS'totalCorrect'
p82
F0.0
sS'digit1attempted'
p83
I0
sS'totalAttempted'
p84
F0.0
sS'lastSessionTotal'
p85
I0
ssS'eric'
p86
(dp87
S'digit4attempted'
p88
I2
sS'lastSessionCorrect'
p89
F2.0
sS'logins'
p90
I16
sS'digit7attempted'
p91
I5
sS'digit2attempted'
p92
I1
sS'digit6attempted'
p93
I1
sS'digit5attempted'
p94
I2
sS'digit0attempted'
p95
I3
sS'digit8attempted'
p96
I5
sS'digit9attempted'
p97
I4
sS'digit3attempted'
p98
I5
sS'totalCorrect'
p99
F24.0
sS'digit1attempted'
p100
I2
sS'totalAttempted'
p101
F30.0
sS'lastSessionTotal'
p102
F2.0
ssS'fdas'
p103
(dp104
S'digit4attempted'
p105
I0
sS'lastSessionCorrect'
p106
I0
sS'logins'
p107
I1
sS'digit7attempted'
p108
I0
sS'digit2attempted'
p109
I0
sS'digit6attempted'
p110
I0
sS'digit5attempted'
p111
I0
sS'digit0attempted'
p112
I0
sS'digit8attempted'
p113
I0
sS'digit9attempted'
p114
I0
sS'digit3attempted'
p115
I0
sS'totalCorrect'
p116
F0.0
sS'digit1attempted'
p117
I0
sS'totalAttempted'
p118
F0.0
sS'lastSessionTotal'
p119
I0
ssS'er'
p120
(dp121
S'digit4attempted'
p122
I0
sS'lastSessionCorrect'
p123
I0
sS'logins'
p124
I8
sS'digit7attempted'
p125
I0
sS'digit2attempted'
p126
I0
sS'digit6attempted'
p127
I0
sS'digit5attempted'
p128
I0
sS'digit0attempted'
p129
I0
sS'digit8attempted'
p130
I0
sS'digit9attempted'
p131
I0
sS'digit3attempted'
p132
I0
sS'totalCorrect'
p133
F0.0
sS'digit1attempted'
p134
I0
sS'totalAttempted'
p135
F0.0
sS'lastSessionTotal'
p136
I0
ssS','
p137
(dp138
S'digit4attempted'
p139
I0
sS'logins'
p140
I1
sS'digit7attempted'
p141
I0
sS'digit2attempted'
p142
I0
sS'totalAttempted'
p143
F0.0
sS'digit6attempted'
p144
I0
sS'digit5attempted'
p145
I0
sS'digit0attempted'
p146
I0
sS'digit8attempted'
p147
I0
sS'digit9attempted'
p148
I0
sS'digit3attempted'
p149
I0
sS'totalCorrect'
p150
F0.0
sS'digit1attempted'
p151
I0
sS'lastSessionCorrect'
p152
I0
sS'lastSessionTotal'
p153
I0
ssS'j'
p154
(dp155
S'digit4attempted'
p156
I0
sS'logins'
p157
I1
sS'digit7attempted'
p158
I0
sS'digit2attempted'
p159
I0
sS'totalAttempted'
p160
F0.0
sS'digit6attempted'
p161
I0
sS'digit5attempted'
p162
I0
sS'digit0attempted'
p163
I0
sS'digit8attempted'
p164
I0
sS'digit9attempted'
p165
I0
sS'digit3attempted'
p166
I0
sS'totalCorrect'
p167
F0.0
sS'digit1attempted'
p168
I0
sS'lastSessionCorrect'
p169
I0
sS'lastSessionTotal'
p170
I0
ssS'add'
p171
(dp172
S'digit4attempted'
p173
I0
sS'lastSessionCorrect'
p174
I0
sS'logins'
p175
I1
sS'digit7attempted'
p176
I0
sS'digit2attempted'
p177
I0
sS'digit6attempted'
p178
I0
sS'digit5attempted'
p179
I0
sS'digit0attempted'
p180
I0
sS'digit8attempted'
p181
I0
sS'digit9attempted'
p182
I0
sS'digit3attempted'
p183
I0
sS'totalCorrect'
p184
F0.0
sS'digit1attempted'
p185
I0
sS'totalAttempted'
p186
F0.0
sS'lastSessionTotal'
p187
I0
ssS'andy'
p188
(dp189
S'digit4attempted'
p190
I0
sS'lastSessionCorrect'
p191
F1.0
sS'logins'
p192
I2
sS'digit7attempted'
p193
I3
sS'digit2attempted'
p194
I0
sS'digit6attempted'
p195
I1
sS'digit5attempted'
p196
I0
sS'digit0attempted'
p197
I0
sS'digit8attempted'
p198
I0
sS'digit9attempted'
p199
I1
sS'digit3attempted'
p200
I0
sS'totalCorrect'
p201
F2.0
sS'digit1attempted'
p202
I0
sS'totalAttempted'
p203
F5.0
sS'lastSessionTotal'
p204
F3.0
ssS'4'
p205
(dp206
S'digit4attempted'
p207
I0
sS'logins'
p208
I1
sS'digit7attempted'
p209
I0
sS'digit2attempted'
p210
I0
sS'totalAttempted'
p211
F0.0
sS'digit6attempted'
p212
I0
sS'digit5attempted'
p213
I0
sS'digit0attempted'
p214
I0
sS'digit8attempted'
p215
I0
sS'digit9attempted'
p216
I0
sS'digit3attempted'
p217
I0
sS'totalCorrect'
p218
F0.0
sS'digit1attempted'
p219
I0
sS'lastSessionCorrect'
p220
I0
sS'lastSessionTotal'
p221
I0
ssS'fasf'
p222
(dp223
S'digit4attempted'
p224
I1
sS'lastSessionCorrect'
p225
F3.0
sS'logins'
p226
I1
sS'digit7attempted'
p227
I0
sS'digit2attempted'
p228
I2
sS'digit6attempted'
p229
I0
sS'digit5attempted'
p230
I1
sS'digit0attempted'
p231
I0
sS'digit8attempted'
p232
I0
sS'digit9attempted'
p233
I0
sS'digit3attempted'
p234
I0
sS'totalCorrect'
p235
F4.0
sS'digit1attempted'
p236
I0
sS'totalAttempted'
p237
F4.0
sS'lastSessionTotal'
p238
F3.0
ssS'hmm'
p239
(dp240
S'digit4attempted'
p241
I0
sS'logins'
p242
I1
sS'digit7attempted'
p243
I0
sS'digit2attempted'
p244
I0
sS'totalAttempted'
p245
F0.0
sS'digit6attempted'
p246
I0
sS'digit5attempted'
p247
I0
sS'digit0attempted'
p248
I0
sS'digit8attempted'
p249
I0
sS'digit9attempted'
p250
I0
sS'digit3attempted'
p251
I0
sS'totalCorrect'
p252
F0.0
sS'digit1attempted'
p253
I0
sS'lastSessionCorrect'
p254
I0
sS'lastSessionTotal'
p255
I0
ssS'fd'
p256
(dp257
S'digit4attempted'
p258
I1
sS'logins'
p259
I1
sS'digit7attempted'
p260
I0
sS'digit2attempted'
p261
I2
sS'totalAttempted'
p262
F5.0
sS'digit6attempted'
p263
I0
sS'digit5attempted'
p264
I0
sS'digit0attempted'
p265
I0
sS'digit8attempted'
p266
I1
sS'digit9attempted'
p267
I0
sS'digit3attempted'
p268
I0
sS'totalCorrect'
p269
F5.0
sS'digit1attempted'
p270
I1
sS'lastSessionCorrect'
p271
F4.0
sS'lastSessionTotal'
p272
F4.0
ssS'br'
p273
(dp274
S'digit4attempted'
p275
I0
sS'lastSessionCorrect'
p276
I0
sS'logins'
p277
I5
sS'digit7attempted'
p278
I0
sS'digit2attempted'
p279
I0
sS'digit6attempted'
p280
I0
sS'digit5attempted'
p281
I0
sS'digit0attempted'
p282
I0
sS'digit8attempted'
p283
I0
sS'digit9attempted'
p284
I0
sS'digit3attempted'
p285
I0
sS'totalCorrect'
p286
F0.0
sS'digit1attempted'
p287
I0
sS'totalAttempted'
p288
F0.0
sS'lastSessionTotal'
p289
I0
ssS'b'
p290
(dp291
S'digit4attempted'
p292
I0
sS'logins'
p293
I1
sS'digit7attempted'
p294
I0
sS'digit2attempted'
p295
I0
sS'totalAttempted'
p296
F0.0
sS'digit6attempted'
p297
I0
sS'digit5attempted'
p298
I0
sS'digit0attempted'
p299
I0
sS'digit8attempted'
p300
I0
sS'digit9attempted'
p301
I0
sS'digit3attempted'
p302
I0
sS'totalCorrect'
p303
F0.0
sS'digit1attempted'
p304
I0
sS'lastSessionCorrect'
p305
I0
sS'lastSessionTotal'
p306
I0
ssS'e'
p307
(dp308
S'digit4attempted'
p309
I0
sS'lastSessionCorrect'
p310
I0
sS'logins'
p311
I2
sS'digit7attempted'
p312
I0
sS'digit2attempted'
p313
I0
sS'digit6attempted'
p314
I0
sS'digit5attempted'
p315
I0
sS'digit0attempted'
p316
I0
sS'digit8attempted'
p317
I0
sS'digit9attempted'
p318
I0
sS'digit3attempted'
p319
I0
sS'totalCorrect'
p320
F0.0
sS'digit1attempted'
p321
I0
sS'totalAttempted'
p322
F0.0
sS'lastSessionTotal'
p323
I0
ssS'd'
p324
(dp325
S'digit4attempted'
p326
I0
sS'logins'
p327
I1
sS'digit7attempted'
p328
I0
sS'digit2attempted'
p329
I0
sS'totalAttempted'
p330
F0.0
sS'digit6attempted'
p331
I0
sS'digit5attempted'
p332
I0
sS'digit0attempted'
p333
I0
sS'digit8attempted'
p334
I0
sS'digit9attempted'
p335
I0
sS'digit3attempted'
p336
I0
sS'totalCorrect'
p337
F0.0
sS'digit1attempted'
p338
I0
sS'lastSessionCorrect'
p339
I0
sS'lastSessionTotal'
p340
I0
ssS'fa'
p341
(dp342
S'digit4attempted'
p343
I0
sS'lastSessionCorrect'
p344
I0
sS'logins'
p345
I1
sS'digit7attempted'
p346
I0
sS'digit2attempted'
p347
I0
sS'digit6attempted'
p348
I0
sS'digit5attempted'
p349
I0
sS'digit0attempted'
p350
I0
sS'digit8attempted'
p351
I0
sS'digit9attempted'
p352
I0
sS'digit3attempted'
p353
I0
sS'totalCorrect'
p354
F0.0
sS'digit1attempted'
p355
I0
sS'totalAttempted'
p356
F0.0
sS'lastSessionTotal'
p357
I0
ssS'h'
p358
(dp359
S'digit4attempted'
p360
I0
sS'logins'
p361
I4
sS'digit7attempted'
p362
I0
sS'digit2attempted'
p363
I0
sS'totalAttempted'
p364
F0.0
sS'digit6attempted'
p365
I0
sS'digit5attempted'
p366
I0
sS'digit0attempted'
p367
I0
sS'digit8attempted'
p368
I0
sS'digit9attempted'
p369
I0
sS'digit3attempted'
p370
I0
sS'totalCorrect'
p371
F0.0
sS'digit1attempted'
p372
I0
sS'lastSessionCorrect'
p373
I0
sS'lastSessionTotal'
p374
I0
ssS'k'
p375
(dp376
S'digit4attempted'
p377
I0
sS'lastSessionCorrect'
p378
I0
sS'logins'
p379
I3
sS'digit7attempted'
p380
I0
sS'digit2attempted'
p381
I0
sS'digit6attempted'
p382
I0
sS'digit5attempted'
p383
I0
sS'digit0attempted'
p384
I0
sS'digit8attempted'
p385
I0
sS'digit9attempted'
p386
I0
sS'digit3attempted'
p387
I0
sS'totalCorrect'
p388
F0.0
sS'digit1attempted'
p389
I0
sS'totalAttempted'
p390
F0.0
sS'lastSessionTotal'
p391
I0
ssS'f'
p392
(dp393
S'digit4attempted'
p394
I10
sS'logins'
p395
I58
sS'digit7attempted'
p396
I23
sS'digit2attempted'
p397
I11
sS'totalAttempted'
p398
F85.0
sS'digit6attempted'
p399
I5
sS'digit5attempted'
p400
I11
sS'digit0attempted'
p401
I6
sS'digit8attempted'
p402
I3
sS'digit9attempted'
p403
I8
sS'digit3attempted'
p404
I5
sS'totalCorrect'
p405
F57.0
sS'digit1attempted'
p406
I3
sS'lastSessionCorrect'
p407
F3.0
sS'lastSessionTotal'
p408
F5.0
ssS'l'
p409
(dp410
S'digit4attempted'
p411
I0
sS'logins'
p412
I1
sS'digit7attempted'
p413
I0
sS'digit2attempted'
p414
I0
sS'totalAttempted'
p415
F0.0
sS'digit6attempted'
p416
I0
sS'digit5attempted'
p417
I0
sS'digit0attempted'
p418
I0
sS'digit8attempted'
p419
I0
sS'digit9attempted'
p420
I0
sS'digit3attempted'
p421
I0
sS'totalCorrect'
p422
F0.0
sS'digit1attempted'
p423
I0
sS'lastSessionCorrect'
p424
I0
sS'lastSessionTotal'
p425
I0
ssS's'
p426
(dp427
S'digit4attempted'
p428
I0
sS'lastSessionCorrect'
p429
I0
sS'logins'
p430
I1
sS'digit7attempted'
p431
I0
sS'digit2attempted'
p432
I0
sS'digit6attempted'
p433
I0
sS'digit5attempted'
p434
I0
sS'digit0attempted'
p435
I0
sS'digit8attempted'
p436
I0
sS'digit9attempted'
p437
I0
sS'digit3attempted'
p438
I0
sS'totalCorrect'
p439
F0.0
sS'digit1attempted'
p440
I0
sS'totalAttempted'
p441
F0.0
sS'lastSessionTotal'
p442
I0
ssS'fdsa'
p443
(dp444
S'digit4attempted'
p445
I1
sS'logins'
p446
I4
sS'digit7attempted'
p447
I3
sS'digit2attempted'
p448
I0
sS'totalAttempted'
p449
F11.0
sS'digit6attempted'
p450
I0
sS'digit5attempted'
p451
I0
sS'digit0attempted'
p452
I0
sS'digit8attempted'
p453
I5
sS'digit9attempted'
p454
I2
sS'digit3attempted'
p455
I0
sS'totalCorrect'
p456
F5.0
sS'digit1attempted'
p457
I0
sS'lastSessionCorrect'
p458
F5.0
sS'lastSessionTotal'
p459
F8.0
ssS'eri'
p460
(dp461
S'digit4attempted'
p462
I1
sS'logins'
p463
I5
sS'digit7attempted'
p464
I2
sS'digit2attempted'
p465
I1
sS'totalAttempted'
p466
F10.0
sS'digit6attempted'
p467
I2
sS'digit5attempted'
p468
I0
sS'digit0attempted'
p469
I0
sS'digit8attempted'
p470
I0
sS'digit9attempted'
p471
I1
sS'digit3attempted'
p472
I2
sS'totalCorrect'
p473
F7.0
sS'digit1attempted'
p474
I1
sS'lastSessionCorrect'
p475
F4.0
sS'lastSessionTotal'
p476
F4.0
ssS'fds'
p477
(dp478
S'digit4attempted'
p479
I0
sS'logins'
p480
I1
sS'digit7attempted'
p481
I0
sS'digit2attempted'
p482
I0
sS'totalAttempted'
p483
F1.0
sS'digit6attempted'
p484
I0
sS'digit5attempted'
p485
I0
sS'digit0attempted'
p486
I0
sS'digit8attempted'
p487
I0
sS'digit9attempted'
p488
I0
sS'digit3attempted'
p489
I1
sS'totalCorrect'
p490
F1.0
sS'digit1attempted'
p491
I0
sS'lastSessionCorrect'
p492
F0.0
sS'lastSessionTotal'
p493
F0.0
ss.